target datalayout = "e-m:e-p270:32:32-p271:32:32-p272:64:64-i64:64-i128:128-f80:128-n8:16:32:64-S128"
target triple = "x86_64-unknown-linux-gnu"

module asm ".section \22.export_symbol\22,\22a\22 ; __export_symbol_mac_pton: ; .asciz \22\22 ; .asciz \22\22 ; .balign 8 ; .quad mac_pton ; .previous"

@_ctype = external dso_local local_unnamed_addr constant [0 x i8], align 1
@__UNIQUE_ID___addressable_mac_pton428 = internal global ptr @mac_pton, section ".discard.addressable", align 8
@llvm.compiler.used = appending global [1 x ptr] [ptr @__UNIQUE_ID___addressable_mac_pton428], section "llvm.metadata"

; Function Attrs: fn_ret_thunk_extern nounwind null_pointer_is_valid
define dso_local noundef zeroext i1 @mac_pton(ptr nocapture noundef readonly %0, ptr nocapture noundef writeonly %1) #0 align 16 {
  %3 = tail call i64 @strnlen(ptr noundef %0, i64 noundef 17)
  %4 = icmp ult i64 %3, 17
  br i1 %4, label %47, label %5

5:                                                ; preds = %29, %2
  %6 = phi i64 [ %30, %29 ], [ 0, %2 ]
  %7 = mul nuw nsw i64 %6, 3
  %8 = getelementptr i8, ptr %0, i64 %7
  %9 = load i8, ptr %8, align 1
  %10 = zext i8 %9 to i64
  %11 = getelementptr [0 x i8], ptr @_ctype, i64 0, i64 %10
  %12 = load i8, ptr %11, align 1
  %13 = and i8 %12, 68
  %14 = icmp eq i8 %13, 0
  br i1 %14, label %47, label %15

15:                                               ; preds = %5
  %16 = getelementptr i8, ptr %8, i64 1
  %17 = load i8, ptr %16, align 1
  %18 = zext i8 %17 to i64
  %19 = getelementptr [0 x i8], ptr @_ctype, i64 0, i64 %18
  %20 = load i8, ptr %19, align 1
  %21 = and i8 %20, 68
  %22 = icmp eq i8 %21, 0
  br i1 %22, label %47, label %23

23:                                               ; preds = %15
  %24 = icmp eq i64 %6, 5
  br i1 %24, label %29, label %25

25:                                               ; preds = %23
  %26 = getelementptr i8, ptr %8, i64 2
  %27 = load i8, ptr %26, align 1
  %28 = icmp eq i8 %27, 58
  br i1 %28, label %29, label %47

29:                                               ; preds = %25, %23
  %30 = add nuw nsw i64 %6, 1
  %31 = icmp eq i64 %30, 6
  br i1 %31, label %32, label %5, !llvm.loop !5

32:                                               ; preds = %32, %29
  %33 = phi i64 [ %45, %32 ], [ 0, %29 ]
  %34 = mul nuw nsw i64 %33, 3
  %35 = getelementptr i8, ptr %0, i64 %34
  %36 = load i8, ptr %35, align 1
  %37 = tail call i32 @hex_to_bin(i8 noundef zeroext %36) #3
  %38 = shl i32 %37, 4
  %39 = getelementptr i8, ptr %35, i64 1
  %40 = load i8, ptr %39, align 1
  %41 = tail call i32 @hex_to_bin(i8 noundef zeroext %40) #3
  %42 = or i32 %41, %38
  %43 = trunc i32 %42 to i8
  %44 = getelementptr i8, ptr %1, i64 %33
  store i8 %43, ptr %44, align 1
  %45 = add nuw nsw i64 %33, 1
  %46 = icmp eq i64 %45, 6
  br i1 %46, label %47, label %32, !llvm.loop !8

47:                                               ; preds = %32, %25, %15, %5, %2
  %48 = phi i1 [ false, %2 ], [ true, %32 ], [ false, %15 ], [ false, %5 ], [ false, %25 ]
  ret i1 %48
}

; Function Attrs: mustprogress nofree nounwind null_pointer_is_valid willreturn memory(argmem: read)
declare dso_local i64 @strnlen(ptr nocapture noundef, i64 noundef) local_unnamed_addr #1

; Function Attrs: null_pointer_is_valid
declare dso_local i32 @hex_to_bin(i8 noundef zeroext) local_unnamed_addr #2


!llvm.module.flags = !{!0, !1, !2, !3, !4}

!0 = !{i32 1, !"wchar_size", i32 2}
!1 = !{i32 8, !"cf-protection-branch", i32 1}
!2 = !{i32 4, !"function_return_thunk_extern", i32 1}
!3 = !{i32 4, !"indirect_branch_cs_prefix", i32 1}
!4 = !{i32 4, !"SkipRaxSetup", i32 1}
!5 = distinct !{!5, !6, !7}
!6 = !{!"llvm.loop.mustprogress"}
!7 = !{!"llvm.loop.unroll.disable"}
!8 = distinct !{!8, !6, !7}
